; Function Attrs: mustprogress uwtable
define void @_ZN5arrow2io11StdinStream4ReadElPv(ptr noalias nocapture writeonly sret(%"class.arrow::Result") align 8 %agg.result, ptr nocapture noundef nonnull align 8 dereferenceable(16) %this, i64 noundef %nbytes, ptr noundef %out) unnamed_addr #8 align 2 {
entry:
  %call = tail call noundef nonnull align 8 dereferenceable(16) ptr @_ZNSi4readEPcl(ptr noundef nonnull align 8 dereferenceable(16) @_ZSt3cin, ptr noundef %out, i64 noundef %nbytes)
  %call2 = tail call noundef i64 @_ZNKSi6gcountEv(ptr noundef nonnull align 8 dereferenceable(16) @_ZSt3cin)
  %pos_ = getelementptr inbounds i8, ptr %this, i64 8
  %0 = load i64, ptr %pos_, align 8
  %add = add nsw i64 %0, %call2
  store i64 %add, ptr %pos_, align 8
  store ptr null, ptr %agg.result, align 8
  %storage_.i.i = getelementptr inbounds i8, ptr %agg.result, i64 8
  store i64 %call2, ptr %storage_.i.i, align 8
  ret void
}